target datalayout = "e-m:e-p270:32:32-p271:32:32-p272:64:64-i64:64-i128:128-f80:128-n8:16:32:64-S128"
target triple = "x86_64-pc-linux-gnu"

%"class.VrmlTranslator::Buffer" = type <{ ptr, ptr, i32, i32, i32, i32, i32, [4 x i8], ptr, i8, [7 x i8] }>

; Function Attrs: mustprogress uwtable
define void @_ZN14VrmlTranslator6BufferC2EPKhi(ptr noundef nonnull align 8 dereferenceable(49) %0, ptr noundef %1, i32 noundef %2) unnamed_addr #1 align 2 {
  %4 = alloca ptr, align 8
  %5 = alloca ptr, align 8
  %6 = alloca i32, align 4
  store ptr %0, ptr %4, align 8
  store ptr %1, ptr %5, align 8
  store i32 %2, ptr %6, align 4
  %7 = load ptr, ptr %4, align 8
  store ptr getelementptr inbounds ({ [10 x ptr] }, ptr @_ZTVN14VrmlTranslator6BufferE, i32 0, i32 0, i32 2), ptr %7, align 8
  %8 = load i32, ptr %6, align 4
  %9 = sext i32 %8 to i64
  %10 = call noalias noundef nonnull ptr @_Znam(i64 noundef %9) #14
  %11 = getelementptr inbounds %"class.VrmlTranslator::Buffer", ptr %7, i32 0, i32 1
  store ptr %10, ptr %11, align 8
  %12 = getelementptr inbounds %"class.VrmlTranslator::Buffer", ptr %7, i32 0, i32 1
  %13 = load ptr, ptr %12, align 8
  %14 = load ptr, ptr %5, align 8
  %15 = load i32, ptr %6, align 4
  %16 = sext i32 %15 to i64
  %17 = mul i64 %16, 1
  call void @llvm.memcpy.p0.p0.i64(ptr align 1 %13, ptr align 1 %14, i64 %17, i1 false)
  %18 = getelementptr inbounds %"class.VrmlTranslator::Buffer", ptr %7, i32 0, i32 3
  store i32 0, ptr %18, align 4
  %19 = load i32, ptr %6, align 4
  %20 = getelementptr inbounds %"class.VrmlTranslator::Buffer", ptr %7, i32 0, i32 4
  store i32 %19, ptr %20, align 8
  %21 = getelementptr inbounds %"class.VrmlTranslator::Buffer", ptr %7, i32 0, i32 2
  store i32 %19, ptr %21, align 8
  %22 = load i32, ptr %6, align 4
  %23 = getelementptr inbounds %"class.VrmlTranslator::Buffer", ptr %7, i32 0, i32 5
  store i32 %22, ptr %23, align 4
  %24 = getelementptr inbounds %"class.VrmlTranslator::Buffer", ptr %7, i32 0, i32 6
  store i32 0, ptr %24, align 8
  %25 = getelementptr inbounds %"class.VrmlTranslator::Buffer", ptr %7, i32 0, i32 8
  store ptr null, ptr %25, align 8
  ret void
}