; Function Attrs: mustprogress uwtable
define void @_ZN14VrmlTranslator6BufferC2EPKhi(ptr nocapture noundef nonnull writeonly align 8 dereferenceable(49) %0, ptr nocapture noundef readonly %1, i32 noundef %2) unnamed_addr #2 align 2 {
  store ptr getelementptr inbounds ({ [10 x ptr] }, ptr @_ZTVN14VrmlTranslator6BufferE, i64 0, i32 0, i64 2), ptr %0, align 8
  %4 = sext i32 %2 to i64
  %5 = tail call noalias noundef nonnull ptr @_Znam(i64 noundef %4) #21
  %6 = getelementptr inbounds i8, ptr %0, i64 8
  store ptr %5, ptr %6, align 8
  tail call void @llvm.memcpy.p0.p0.i64(ptr nonnull align 1 %5, ptr align 1 %1, i64 %4, i1 false)
  %7 = getelementptr inbounds i8, ptr %0, i64 20
  store i32 0, ptr %7, align 4
  %8 = getelementptr inbounds i8, ptr %0, i64 24
  store i32 %2, ptr %8, align 8
  %9 = getelementptr inbounds i8, ptr %0, i64 16
  store i32 %2, ptr %9, align 8
  %10 = getelementptr inbounds i8, ptr %0, i64 28
  store i32 %2, ptr %10, align 4
  %11 = getelementptr inbounds i8, ptr %0, i64 32
  store i32 0, ptr %11, align 8
  %12 = getelementptr inbounds i8, ptr %0, i64 40
  store ptr null, ptr %12, align 8
  ret void
}